(lp1
S'http://www.indeed.com/rc/clk?jk=d0bc025687ecbedb'
p2
aS'http://www.indeed.com/rc/clk?jk=3fc2e221128e5a21'
p3
aS'http://www.indeed.com/rc/clk?jk=b60d710b84d60d51'
p4
aS'http://www.indeed.com/rc/clk?jk=3975ef7fe7622f44'
p5
aS'http://www.indeed.com/rc/clk?jk=e47ee67cfbdeca39'
p6
aS'http://www.indeed.com/rc/clk?jk=31cef9efaf3aed78'
p7
aS'http://www.indeed.com/rc/clk?jk=d9bf27500aa0400c'
p8
aS'http://www.indeed.com/rc/clk?jk=67bccc494bbccec4'
p9
aS'http://www.indeed.com/rc/clk?jk=3044383ab72623a4'
p10
aS'http://www.indeed.com/rc/clk?jk=d0bc025687ecbedb'
p11
aS'http://www.indeed.com/rc/clk?jk=3fc2e221128e5a21'
p12
aS'http://www.indeed.com/rc/clk?jk=b60d710b84d60d51'
p13
aS'http://www.indeed.com/rc/clk?jk=3975ef7fe7622f44'
p14
aS'http://www.indeed.com/rc/clk?jk=e47ee67cfbdeca39'
p15
aS'http://www.indeed.com/rc/clk?jk=31cef9efaf3aed78'
p16
aS'http://www.indeed.com/rc/clk?jk=d9bf27500aa0400c'
p17
aS'http://www.indeed.com/rc/clk?jk=67bccc494bbccec4'
p18
aS'http://www.indeed.com/rc/clk?jk=3044383ab72623a4'
p19
aS'http://www.indeed.com/rc/clk?jk=d0bc025687ecbedb'
p20
aS'http://www.indeed.com/rc/clk?jk=3fc2e221128e5a21'
p21
aS'http://www.indeed.com/rc/clk?jk=b60d710b84d60d51'
p22
aS'http://www.indeed.com/rc/clk?jk=3975ef7fe7622f44'
p23
aS'http://www.indeed.com/rc/clk?jk=e47ee67cfbdeca39'
p24
aS'http://www.indeed.com/rc/clk?jk=31cef9efaf3aed78'
p25
aS'http://www.indeed.com/rc/clk?jk=d9bf27500aa0400c'
p26
aS'http://www.indeed.com/rc/clk?jk=67bccc494bbccec4'
p27
aS'http://www.indeed.com/rc/clk?jk=3044383ab72623a4'
p28
aS'http://www.indeed.com/rc/clk?jk=d0bc025687ecbedb'
p29
aS'http://www.indeed.com/rc/clk?jk=3fc2e221128e5a21'
p30
aS'http://www.indeed.com/rc/clk?jk=b60d710b84d60d51'
p31
aS'http://www.indeed.com/rc/clk?jk=3975ef7fe7622f44'
p32
aS'http://www.indeed.com/rc/clk?jk=e47ee67cfbdeca39'
p33
aS'http://www.indeed.com/rc/clk?jk=31cef9efaf3aed78'
p34
aS'http://www.indeed.com/rc/clk?jk=d9bf27500aa0400c'
p35
aS'http://www.indeed.com/rc/clk?jk=67bccc494bbccec4'
p36
aS'http://www.indeed.com/rc/clk?jk=3044383ab72623a4'
p37
aS'http://www.indeed.com/rc/clk?jk=d0bc025687ecbedb'
p38
aS'http://www.indeed.com/rc/clk?jk=3fc2e221128e5a21'
p39
aS'http://www.indeed.com/rc/clk?jk=b60d710b84d60d51'
p40
aS'http://www.indeed.com/rc/clk?jk=3975ef7fe7622f44'
p41
aS'http://www.indeed.com/rc/clk?jk=e47ee67cfbdeca39'
p42
aS'http://www.indeed.com/rc/clk?jk=31cef9efaf3aed78'
p43
aS'http://www.indeed.com/rc/clk?jk=d9bf27500aa0400c'
p44
aS'http://www.indeed.com/rc/clk?jk=67bccc494bbccec4'
p45
aS'http://www.indeed.com/rc/clk?jk=3044383ab72623a4'
p46
aS'http://www.indeed.com/rc/clk?jk=d0bc025687ecbedb'
p47
aS'http://www.indeed.com/rc/clk?jk=3fc2e221128e5a21'
p48
aS'http://www.indeed.com/rc/clk?jk=b60d710b84d60d51'
p49
aS'http://www.indeed.com/rc/clk?jk=3975ef7fe7622f44'
p50
aS'http://www.indeed.com/rc/clk?jk=e47ee67cfbdeca39'
p51
aS'http://www.indeed.com/rc/clk?jk=31cef9efaf3aed78'
p52
aS'http://www.indeed.com/rc/clk?jk=d9bf27500aa0400c'
p53
aS'http://www.indeed.com/rc/clk?jk=67bccc494bbccec4'
p54
aS'http://www.indeed.com/rc/clk?jk=3044383ab72623a4'
p55
aS'http://www.indeed.com/rc/clk?jk=d0bc025687ecbedb'
p56
aS'http://www.indeed.com/rc/clk?jk=3fc2e221128e5a21'
p57
aS'http://www.indeed.com/rc/clk?jk=b60d710b84d60d51'
p58
aS'http://www.indeed.com/rc/clk?jk=3975ef7fe7622f44'
p59
aS'http://www.indeed.com/rc/clk?jk=e47ee67cfbdeca39'
p60
aS'http://www.indeed.com/rc/clk?jk=31cef9efaf3aed78'
p61
aS'http://www.indeed.com/rc/clk?jk=d9bf27500aa0400c'
p62
aS'http://www.indeed.com/rc/clk?jk=67bccc494bbccec4'
p63
aS'http://www.indeed.com/rc/clk?jk=3044383ab72623a4'
p64
aS'http://www.indeed.com/rc/clk?jk=d0bc025687ecbedb'
p65
aS'http://www.indeed.com/rc/clk?jk=3fc2e221128e5a21'
p66
aS'http://www.indeed.com/rc/clk?jk=b60d710b84d60d51'
p67
aS'http://www.indeed.com/rc/clk?jk=3975ef7fe7622f44'
p68
aS'http://www.indeed.com/rc/clk?jk=e47ee67cfbdeca39'
p69
aS'http://www.indeed.com/rc/clk?jk=31cef9efaf3aed78'
p70
aS'http://www.indeed.com/rc/clk?jk=d9bf27500aa0400c'
p71
aS'http://www.indeed.com/rc/clk?jk=67bccc494bbccec4'
p72
aS'http://www.indeed.com/rc/clk?jk=3044383ab72623a4'
p73
aS'http://www.indeed.com/rc/clk?jk=d0bc025687ecbedb'
p74
aS'http://www.indeed.com/rc/clk?jk=3fc2e221128e5a21'
p75
aS'http://www.indeed.com/rc/clk?jk=b60d710b84d60d51'
p76
aS'http://www.indeed.com/rc/clk?jk=3975ef7fe7622f44'
p77
aS'http://www.indeed.com/rc/clk?jk=e47ee67cfbdeca39'
p78
aS'http://www.indeed.com/rc/clk?jk=31cef9efaf3aed78'
p79
aS'http://www.indeed.com/rc/clk?jk=d9bf27500aa0400c'
p80
aS'http://www.indeed.com/rc/clk?jk=67bccc494bbccec4'
p81
aS'http://www.indeed.com/rc/clk?jk=3044383ab72623a4'
p82
aS'http://www.indeed.com/rc/clk?jk=d0bc025687ecbedb'
p83
aS'http://www.indeed.com/rc/clk?jk=3fc2e221128e5a21'
p84
aS'http://www.indeed.com/rc/clk?jk=b60d710b84d60d51'
p85
aS'http://www.indeed.com/rc/clk?jk=3975ef7fe7622f44'
p86
aS'http://www.indeed.com/rc/clk?jk=e47ee67cfbdeca39'
p87
aS'http://www.indeed.com/rc/clk?jk=31cef9efaf3aed78'
p88
aS'http://www.indeed.com/rc/clk?jk=d9bf27500aa0400c'
p89
aS'http://www.indeed.com/rc/clk?jk=67bccc494bbccec4'
p90
aS'http://www.indeed.com/rc/clk?jk=3044383ab72623a4'
p91
aS'http://www.indeed.com/rc/clk?jk=d0bc025687ecbedb'
p92
aS'http://www.indeed.com/rc/clk?jk=3fc2e221128e5a21'
p93
aS'http://www.indeed.com/rc/clk?jk=b60d710b84d60d51'
p94
aS'http://www.indeed.com/rc/clk?jk=3975ef7fe7622f44'
p95
aS'http://www.indeed.com/rc/clk?jk=e47ee67cfbdeca39'
p96
aS'http://www.indeed.com/rc/clk?jk=31cef9efaf3aed78'
p97
aS'http://www.indeed.com/rc/clk?jk=d9bf27500aa0400c'
p98
aS'http://www.indeed.com/rc/clk?jk=67bccc494bbccec4'
p99
aS'http://www.indeed.com/rc/clk?jk=3044383ab72623a4'
p100
aS'http://www.indeed.com/rc/clk?jk=d0bc025687ecbedb'
p101
aS'http://www.indeed.com/rc/clk?jk=3fc2e221128e5a21'
p102
aS'http://www.indeed.com/rc/clk?jk=b60d710b84d60d51'
p103
aS'http://www.indeed.com/rc/clk?jk=3975ef7fe7622f44'
p104
aS'http://www.indeed.com/rc/clk?jk=e47ee67cfbdeca39'
p105
aS'http://www.indeed.com/rc/clk?jk=31cef9efaf3aed78'
p106
aS'http://www.indeed.com/rc/clk?jk=d9bf27500aa0400c'
p107
aS'http://www.indeed.com/rc/clk?jk=67bccc494bbccec4'
p108
aS'http://www.indeed.com/rc/clk?jk=3044383ab72623a4'
p109
aS'http://www.indeed.com/rc/clk?jk=d0bc025687ecbedb'
p110
aS'http://www.indeed.com/rc/clk?jk=3fc2e221128e5a21'
p111
aS'http://www.indeed.com/rc/clk?jk=b60d710b84d60d51'
p112
aS'http://www.indeed.com/rc/clk?jk=3975ef7fe7622f44'
p113
aS'http://www.indeed.com/rc/clk?jk=e47ee67cfbdeca39'
p114
aS'http://www.indeed.com/rc/clk?jk=31cef9efaf3aed78'
p115
aS'http://www.indeed.com/rc/clk?jk=d9bf27500aa0400c'
p116
aS'http://www.indeed.com/rc/clk?jk=67bccc494bbccec4'
p117
aS'http://www.indeed.com/rc/clk?jk=3044383ab72623a4'
p118
aS'http://www.indeed.com/rc/clk?jk=d0bc025687ecbedb'
p119
aS'http://www.indeed.com/rc/clk?jk=3fc2e221128e5a21'
p120
aS'http://www.indeed.com/rc/clk?jk=b60d710b84d60d51'
p121
aS'http://www.indeed.com/rc/clk?jk=3975ef7fe7622f44'
p122
aS'http://www.indeed.com/rc/clk?jk=e47ee67cfbdeca39'
p123
aS'http://www.indeed.com/rc/clk?jk=31cef9efaf3aed78'
p124
aS'http://www.indeed.com/rc/clk?jk=d9bf27500aa0400c'
p125
aS'http://www.indeed.com/rc/clk?jk=67bccc494bbccec4'
p126
aS'http://www.indeed.com/rc/clk?jk=3044383ab72623a4'
p127
aS'http://www.indeed.com/rc/clk?jk=d0bc025687ecbedb'
p128
aS'http://www.indeed.com/rc/clk?jk=3fc2e221128e5a21'
p129
aS'http://www.indeed.com/rc/clk?jk=b60d710b84d60d51'
p130
aS'http://www.indeed.com/rc/clk?jk=3975ef7fe7622f44'
p131
aS'http://www.indeed.com/rc/clk?jk=e47ee67cfbdeca39'
p132
aS'http://www.indeed.com/rc/clk?jk=31cef9efaf3aed78'
p133
aS'http://www.indeed.com/rc/clk?jk=d9bf27500aa0400c'
p134
aS'http://www.indeed.com/rc/clk?jk=67bccc494bbccec4'
p135
aS'http://www.indeed.com/rc/clk?jk=3044383ab72623a4'
p136
aS'http://www.indeed.com/rc/clk?jk=d0bc025687ecbedb'
p137
aS'http://www.indeed.com/rc/clk?jk=3fc2e221128e5a21'
p138
aS'http://www.indeed.com/rc/clk?jk=b60d710b84d60d51'
p139
aS'http://www.indeed.com/rc/clk?jk=3975ef7fe7622f44'
p140
aS'http://www.indeed.com/rc/clk?jk=e47ee67cfbdeca39'
p141
aS'http://www.indeed.com/rc/clk?jk=31cef9efaf3aed78'
p142
aS'http://www.indeed.com/rc/clk?jk=d9bf27500aa0400c'
p143
aS'http://www.indeed.com/rc/clk?jk=67bccc494bbccec4'
p144
aS'http://www.indeed.com/rc/clk?jk=3044383ab72623a4'
p145
aS'http://www.indeed.com/rc/clk?jk=d0bc025687ecbedb'
p146
aS'http://www.indeed.com/rc/clk?jk=3fc2e221128e5a21'
p147
aS'http://www.indeed.com/rc/clk?jk=b60d710b84d60d51'
p148
aS'http://www.indeed.com/rc/clk?jk=3975ef7fe7622f44'
p149
aS'http://www.indeed.com/rc/clk?jk=e47ee67cfbdeca39'
p150
aS'http://www.indeed.com/rc/clk?jk=31cef9efaf3aed78'
p151
aS'http://www.indeed.com/rc/clk?jk=d9bf27500aa0400c'
p152
aS'http://www.indeed.com/rc/clk?jk=67bccc494bbccec4'
p153
aS'http://www.indeed.com/rc/clk?jk=3044383ab72623a4'
p154
aS'http://www.indeed.com/rc/clk?jk=d0bc025687ecbedb'
p155
aS'http://www.indeed.com/rc/clk?jk=3fc2e221128e5a21'
p156
aS'http://www.indeed.com/rc/clk?jk=b60d710b84d60d51'
p157
aS'http://www.indeed.com/rc/clk?jk=3975ef7fe7622f44'
p158
aS'http://www.indeed.com/rc/clk?jk=e47ee67cfbdeca39'
p159
aS'http://www.indeed.com/rc/clk?jk=31cef9efaf3aed78'
p160
aS'http://www.indeed.com/rc/clk?jk=d9bf27500aa0400c'
p161
aS'http://www.indeed.com/rc/clk?jk=67bccc494bbccec4'
p162
aS'http://www.indeed.com/rc/clk?jk=3044383ab72623a4'
p163
aS'http://www.indeed.com/rc/clk?jk=d0bc025687ecbedb'
p164
aS'http://www.indeed.com/rc/clk?jk=3fc2e221128e5a21'
p165
aS'http://www.indeed.com/rc/clk?jk=b60d710b84d60d51'
p166
aS'http://www.indeed.com/rc/clk?jk=3975ef7fe7622f44'
p167
aS'http://www.indeed.com/rc/clk?jk=e47ee67cfbdeca39'
p168
aS'http://www.indeed.com/rc/clk?jk=31cef9efaf3aed78'
p169
aS'http://www.indeed.com/rc/clk?jk=d9bf27500aa0400c'
p170
aS'http://www.indeed.com/rc/clk?jk=67bccc494bbccec4'
p171
aS'http://www.indeed.com/rc/clk?jk=3044383ab72623a4'
p172
aS'http://www.indeed.com/rc/clk?jk=d0bc025687ecbedb'
p173
aS'http://www.indeed.com/rc/clk?jk=3fc2e221128e5a21'
p174
aS'http://www.indeed.com/rc/clk?jk=b60d710b84d60d51'
p175
aS'http://www.indeed.com/rc/clk?jk=3975ef7fe7622f44'
p176
aS'http://www.indeed.com/rc/clk?jk=e47ee67cfbdeca39'
p177
aS'http://www.indeed.com/rc/clk?jk=31cef9efaf3aed78'
p178
aS'http://www.indeed.com/rc/clk?jk=d9bf27500aa0400c'
p179
aS'http://www.indeed.com/rc/clk?jk=67bccc494bbccec4'
p180
aS'http://www.indeed.com/rc/clk?jk=3044383ab72623a4'
p181
aS'http://www.indeed.com/rc/clk?jk=d0bc025687ecbedb'
p182
aS'http://www.indeed.com/rc/clk?jk=3fc2e221128e5a21'
p183
aS'http://www.indeed.com/rc/clk?jk=b60d710b84d60d51'
p184
aS'http://www.indeed.com/rc/clk?jk=3975ef7fe7622f44'
p185
aS'http://www.indeed.com/rc/clk?jk=e47ee67cfbdeca39'
p186
aS'http://www.indeed.com/rc/clk?jk=31cef9efaf3aed78'
p187
aS'http://www.indeed.com/rc/clk?jk=d9bf27500aa0400c'
p188
aS'http://www.indeed.com/rc/clk?jk=67bccc494bbccec4'
p189
aS'http://www.indeed.com/rc/clk?jk=3044383ab72623a4'
p190
aS'http://www.indeed.com/rc/clk?jk=d0bc025687ecbedb'
p191
aS'http://www.indeed.com/rc/clk?jk=3fc2e221128e5a21'
p192
aS'http://www.indeed.com/rc/clk?jk=b60d710b84d60d51'
p193
aS'http://www.indeed.com/rc/clk?jk=3975ef7fe7622f44'
p194
aS'http://www.indeed.com/rc/clk?jk=e47ee67cfbdeca39'
p195
aS'http://www.indeed.com/rc/clk?jk=31cef9efaf3aed78'
p196
aS'http://www.indeed.com/rc/clk?jk=d9bf27500aa0400c'
p197
aS'http://www.indeed.com/rc/clk?jk=67bccc494bbccec4'
p198
aS'http://www.indeed.com/rc/clk?jk=3044383ab72623a4'
p199
aS'http://www.indeed.com/rc/clk?jk=d0bc025687ecbedb'
p200
aS'http://www.indeed.com/rc/clk?jk=3fc2e221128e5a21'
p201
aS'http://www.indeed.com/rc/clk?jk=b60d710b84d60d51'
p202
aS'http://www.indeed.com/rc/clk?jk=3975ef7fe7622f44'
p203
aS'http://www.indeed.com/rc/clk?jk=e47ee67cfbdeca39'
p204
aS'http://www.indeed.com/rc/clk?jk=31cef9efaf3aed78'
p205
aS'http://www.indeed.com/rc/clk?jk=d9bf27500aa0400c'
p206
aS'http://www.indeed.com/rc/clk?jk=67bccc494bbccec4'
p207
aS'http://www.indeed.com/rc/clk?jk=3044383ab72623a4'
p208
aS'http://www.indeed.com/rc/clk?jk=d0bc025687ecbedb'
p209
aS'http://www.indeed.com/rc/clk?jk=3fc2e221128e5a21'
p210
aS'http://www.indeed.com/rc/clk?jk=b60d710b84d60d51'
p211
aS'http://www.indeed.com/rc/clk?jk=3975ef7fe7622f44'
p212
aS'http://www.indeed.com/rc/clk?jk=e47ee67cfbdeca39'
p213
aS'http://www.indeed.com/rc/clk?jk=31cef9efaf3aed78'
p214
aS'http://www.indeed.com/rc/clk?jk=d9bf27500aa0400c'
p215
aS'http://www.indeed.com/rc/clk?jk=67bccc494bbccec4'
p216
aS'http://www.indeed.com/rc/clk?jk=3044383ab72623a4'
p217
aS'http://www.indeed.com/rc/clk?jk=d0bc025687ecbedb'
p218
aS'http://www.indeed.com/rc/clk?jk=3fc2e221128e5a21'
p219
aS'http://www.indeed.com/rc/clk?jk=b60d710b84d60d51'
p220
aS'http://www.indeed.com/rc/clk?jk=3975ef7fe7622f44'
p221
aS'http://www.indeed.com/rc/clk?jk=e47ee67cfbdeca39'
p222
aS'http://www.indeed.com/rc/clk?jk=31cef9efaf3aed78'
p223
aS'http://www.indeed.com/rc/clk?jk=d9bf27500aa0400c'
p224
aS'http://www.indeed.com/rc/clk?jk=67bccc494bbccec4'
p225
aS'http://www.indeed.com/rc/clk?jk=3044383ab72623a4'
p226
aS'http://www.indeed.com/rc/clk?jk=d0bc025687ecbedb'
p227
aS'http://www.indeed.com/rc/clk?jk=3fc2e221128e5a21'
p228
aS'http://www.indeed.com/rc/clk?jk=b60d710b84d60d51'
p229
aS'http://www.indeed.com/rc/clk?jk=3975ef7fe7622f44'
p230
aS'http://www.indeed.com/rc/clk?jk=e47ee67cfbdeca39'
p231
aS'http://www.indeed.com/rc/clk?jk=31cef9efaf3aed78'
p232
aS'http://www.indeed.com/rc/clk?jk=d9bf27500aa0400c'
p233
aS'http://www.indeed.com/rc/clk?jk=67bccc494bbccec4'
p234
aS'http://www.indeed.com/rc/clk?jk=3044383ab72623a4'
p235
aS'http://www.indeed.com/rc/clk?jk=d0bc025687ecbedb'
p236
aS'http://www.indeed.com/rc/clk?jk=3fc2e221128e5a21'
p237
aS'http://www.indeed.com/rc/clk?jk=b60d710b84d60d51'
p238
aS'http://www.indeed.com/rc/clk?jk=3975ef7fe7622f44'
p239
aS'http://www.indeed.com/rc/clk?jk=e47ee67cfbdeca39'
p240
aS'http://www.indeed.com/rc/clk?jk=31cef9efaf3aed78'
p241
aS'http://www.indeed.com/rc/clk?jk=d9bf27500aa0400c'
p242
aS'http://www.indeed.com/rc/clk?jk=67bccc494bbccec4'
p243
aS'http://www.indeed.com/rc/clk?jk=3044383ab72623a4'
p244
aS'http://www.indeed.com/rc/clk?jk=d0bc025687ecbedb'
p245
aS'http://www.indeed.com/rc/clk?jk=3fc2e221128e5a21'
p246
aS'http://www.indeed.com/rc/clk?jk=b60d710b84d60d51'
p247
aS'http://www.indeed.com/rc/clk?jk=3975ef7fe7622f44'
p248
aS'http://www.indeed.com/rc/clk?jk=e47ee67cfbdeca39'
p249
aS'http://www.indeed.com/rc/clk?jk=31cef9efaf3aed78'
p250
aS'http://www.indeed.com/rc/clk?jk=d9bf27500aa0400c'
p251
aS'http://www.indeed.com/rc/clk?jk=67bccc494bbccec4'
p252
aS'http://www.indeed.com/rc/clk?jk=3044383ab72623a4'
p253
aS'http://www.indeed.com/rc/clk?jk=d0bc025687ecbedb'
p254
aS'http://www.indeed.com/rc/clk?jk=3fc2e221128e5a21'
p255
aS'http://www.indeed.com/rc/clk?jk=b60d710b84d60d51'
p256
aS'http://www.indeed.com/rc/clk?jk=3975ef7fe7622f44'
p257
aS'http://www.indeed.com/rc/clk?jk=e47ee67cfbdeca39'
p258
aS'http://www.indeed.com/rc/clk?jk=31cef9efaf3aed78'
p259
aS'http://www.indeed.com/rc/clk?jk=d9bf27500aa0400c'
p260
aS'http://www.indeed.com/rc/clk?jk=67bccc494bbccec4'
p261
aS'http://www.indeed.com/rc/clk?jk=3044383ab72623a4'
p262
aS'http://www.indeed.com/rc/clk?jk=d0bc025687ecbedb'
p263
aS'http://www.indeed.com/rc/clk?jk=3fc2e221128e5a21'
p264
aS'http://www.indeed.com/rc/clk?jk=b60d710b84d60d51'
p265
aS'http://www.indeed.com/rc/clk?jk=3975ef7fe7622f44'
p266
aS'http://www.indeed.com/rc/clk?jk=e47ee67cfbdeca39'
p267
aS'http://www.indeed.com/rc/clk?jk=31cef9efaf3aed78'
p268
aS'http://www.indeed.com/rc/clk?jk=d9bf27500aa0400c'
p269
aS'http://www.indeed.com/rc/clk?jk=67bccc494bbccec4'
p270
aS'http://www.indeed.com/rc/clk?jk=3044383ab72623a4'
p271
a.